target datalayout = "e-m:e-p270:32:32-p271:32:32-p272:64:64-i64:64-i128:128-f80:128-n8:16:32:64-S128"
target triple = "x86_64-unknown-linux-gnu"

%"class.icu_75::OlsonTimeZone" = type { %"class.icu_75::BasicTimeZone", i16, i16, i16, ptr, ptr, ptr, i16, ptr, ptr, ptr, double, i32, ptr, ptr, ptr, i16, ptr, ptr, i16, ptr, %"struct.icu_75::UInitOnce" }
%"class.icu_75::BasicTimeZone" = type { %"class.icu_75::TimeZone" }
%"class.icu_75::TimeZone" = type { %"class.icu_75::UObject", %"class.icu_75::UnicodeString" }
%"class.icu_75::UObject" = type { ptr }
%"class.icu_75::UnicodeString" = type { %"class.icu_75::Replaceable", %"union.icu_75::UnicodeString::StackBufferOrFields" }
%"class.icu_75::Replaceable" = type { %"class.icu_75::UObject" }
%"union.icu_75::UnicodeString::StackBufferOrFields" = type { %struct.anon.0, [32 x i8] }
%struct.anon.0 = type { i16, i32, i32, ptr }
%"struct.icu_75::UInitOnce" = type { %"struct.std::atomic", i32 }
%"struct.std::atomic" = type { %"struct.std::__atomic_base" }
%"struct.std::__atomic_base" = type { i32 }

; Function Attrs: mustprogress uwtable
define noundef i32 @_ZNK6icu_7513OlsonTimeZone13getDSTSavingsEv(ptr noundef nonnull align 8 dereferenceable(224) %this) unnamed_addr #1 align 2 {
entry:
  %retval = alloca i32, align 4
  %this.addr = alloca ptr, align 8
  store ptr %this, ptr %this.addr, align 8
  %this1 = load ptr, ptr %this.addr, align 8
  %finalZone = getelementptr inbounds %"class.icu_75::OlsonTimeZone", ptr %this1, i32 0, i32 10
  %0 = load ptr, ptr %finalZone, align 8
  %cmp = icmp ne ptr %0, null
  br i1 %cmp, label %if.then, label %if.end

if.then:                                          ; preds = %entry
  %finalZone2 = getelementptr inbounds %"class.icu_75::OlsonTimeZone", ptr %this1, i32 0, i32 10
  %1 = load ptr, ptr %finalZone2, align 8
  %vtable = load ptr, ptr %1, align 8
  %vfn = getelementptr inbounds ptr, ptr %vtable, i64 13
  %2 = load ptr, ptr %vfn, align 8
  %call = call noundef i32 %2(ptr noundef nonnull align 8 dereferenceable(160) %1)
  store i32 %call, ptr %retval, align 4
  br label %return

if.end:                                           ; preds = %entry
  %call3 = call noundef i32 @_ZNK6icu_758TimeZone13getDSTSavingsEv(ptr noundef nonnull align 8 dereferenceable(72) %this1)
  store i32 %call3, ptr %retval, align 4
  br label %return

return:                                           ; preds = %if.end, %if.then
  %3 = load i32, ptr %retval, align 4
  ret i32 %3
}