; Function Attrs: mustprogress uwtable
define noundef i32 @_ZNK6icu_7513OlsonTimeZone13getDSTSavingsEv(ptr noundef nonnull align 8 dereferenceable(224) %this) unnamed_addr #2 align 2 {
entry:
  %finalZone = getelementptr inbounds i8, ptr %this, i64 128
  %0 = load ptr, ptr %finalZone, align 8
  %cmp.not = icmp eq ptr %0, null
  br i1 %cmp.not, label %if.end, label %if.then

if.then:                                          ; preds = %entry
  %vtable = load ptr, ptr %0, align 8
  %vfn = getelementptr inbounds i8, ptr %vtable, i64 104
  %1 = load ptr, ptr %vfn, align 8
  %call = tail call noundef i32 %1(ptr noundef nonnull align 8 dereferenceable(160) %0)
  br label %return

if.end:                                           ; preds = %entry
  %call3 = tail call noundef i32 @_ZNK6icu_758TimeZone13getDSTSavingsEv(ptr noundef nonnull align 8 dereferenceable(72) %this)
  br label %return

return:                                           ; preds = %if.end, %if.then
  %retval.0 = phi i32 [ %call, %if.then ], [ %call3, %if.end ]
  ret i32 %retval.0
}